(dp0
Vengine
p1
S'pdflatex'
p2
sVpackages
p3
c__builtin__
set
p4
((lp5
Vamsmath
p6
aVIEEEtrantools
p7
aVmathtools
p8
aVbbm
p9
aVamsfonts
p10
atp11
Rp12
sVfiles_with_guttermarks
p13
g4
((lp14
V/Users/Akash/Dropbox/rappor-js/groups/./groups.tex
p15
aS'groups.tex'
p16
atp17
Rp18
sVsynctex
p19
I01
s.